target datalayout = "e-m:e-p270:32:32-p271:32:32-p272:64:64-i64:64-i128:128-f80:128-n8:16:32:64-S128"
target triple = "x86_64-pc-linux-gnu"

%"class.icu_77::number::impl::DecimalQuantity" = type <{ %"class.icu_77::IFixedDecimal", i8, [3 x i8], i32, i32, i8, i8, [2 x i8], double, i32, i32, i32, i32, %union.anon, i8, i8, [6 x i8] }>
%"class.icu_77::IFixedDecimal" = type { ptr }
%union.anon = type { %struct.anon }
%struct.anon = type { ptr, i32 }

; Function Attrs: mustprogress nounwind uwtable
define void @_ZN6icu_776number4impl15DecimalQuantity10shiftRightEi(ptr noundef nonnull align 8 dereferenceable(66) %0, i32 noundef %1) #0 align 2 {
  %3 = alloca ptr, align 8
  %4 = alloca i32, align 4
  %5 = alloca i32, align 4
  store ptr %0, ptr %3, align 8, !tbaa !25
  store i32 %1, ptr %4, align 4, !tbaa !14
  %6 = load ptr, ptr %3, align 8
  %7 = getelementptr inbounds nuw %"class.icu_77::number::impl::DecimalQuantity", ptr %6, i32 0, i32 14
  %8 = load i8, ptr %7, align 8, !tbaa !37, !range !40, !noundef !41
  %9 = trunc i8 %8 to i1
  br i1 %9, label %10, label %54

10:                                               ; preds = %2
  call void @llvm.lifetime.start.p0(i64 4, ptr %5) #14
  store i32 0, ptr %5, align 4, !tbaa !14
  br label %11

11:                                               ; preds = %34, %10
  %12 = load i32, ptr %5, align 4, !tbaa !14
  %13 = getelementptr inbounds nuw %"class.icu_77::number::impl::DecimalQuantity", ptr %6, i32 0, i32 4
  %14 = load i32, ptr %13, align 8, !tbaa !44
  %15 = load i32, ptr %4, align 4, !tbaa !14
  %16 = sub nsw i32 %14, %15
  %17 = icmp slt i32 %12, %16
  br i1 %17, label %18, label %37

18:                                               ; preds = %11
  %19 = getelementptr inbounds nuw %"class.icu_77::number::impl::DecimalQuantity", ptr %6, i32 0, i32 13
  %20 = getelementptr inbounds nuw %struct.anon, ptr %19, i32 0, i32 0
  %21 = load ptr, ptr %20, align 8, !tbaa !42
  %22 = load i32, ptr %5, align 4, !tbaa !14
  %23 = load i32, ptr %4, align 4, !tbaa !14
  %24 = add nsw i32 %22, %23
  %25 = sext i32 %24 to i64
  %26 = getelementptr inbounds i8, ptr %21, i64 %25
  %27 = load i8, ptr %26, align 1, !tbaa !42
  %28 = getelementptr inbounds nuw %"class.icu_77::number::impl::DecimalQuantity", ptr %6, i32 0, i32 13
  %29 = getelementptr inbounds nuw %struct.anon, ptr %28, i32 0, i32 0
  %30 = load ptr, ptr %29, align 8, !tbaa !42
  %31 = load i32, ptr %5, align 4, !tbaa !14
  %32 = sext i32 %31 to i64
  %33 = getelementptr inbounds i8, ptr %30, i64 %32
  store i8 %27, ptr %33, align 1, !tbaa !42
  br label %34

34:                                               ; preds = %18
  %35 = load i32, ptr %5, align 4, !tbaa !14
  %36 = add nsw i32 %35, 1
  store i32 %36, ptr %5, align 4, !tbaa !14
  br label %11, !llvm.loop !108

37:                                               ; preds = %11
  br label %38

38:                                               ; preds = %50, %37
  %39 = load i32, ptr %5, align 4, !tbaa !14
  %40 = getelementptr inbounds nuw %"class.icu_77::number::impl::DecimalQuantity", ptr %6, i32 0, i32 4
  %41 = load i32, ptr %40, align 8, !tbaa !44
  %42 = icmp slt i32 %39, %41
  br i1 %42, label %43, label %53

43:                                               ; preds = %38
  %44 = getelementptr inbounds nuw %"class.icu_77::number::impl::DecimalQuantity", ptr %6, i32 0, i32 13
  %45 = getelementptr inbounds nuw %struct.anon, ptr %44, i32 0, i32 0
  %46 = load ptr, ptr %45, align 8, !tbaa !42
  %47 = load i32, ptr %5, align 4, !tbaa !14
  %48 = sext i32 %47 to i64
  %49 = getelementptr inbounds i8, ptr %46, i64 %48
  store i8 0, ptr %49, align 1, !tbaa !42
  br label %50

50:                                               ; preds = %43
  %51 = load i32, ptr %5, align 4, !tbaa !14
  %52 = add nsw i32 %51, 1
  store i32 %52, ptr %5, align 4, !tbaa !14
  br label %38, !llvm.loop !109

53:                                               ; preds = %38
  call void @llvm.lifetime.end.p0(i64 4, ptr %5) #14
  br label %61

54:                                               ; preds = %2
  %55 = load i32, ptr %4, align 4, !tbaa !14
  %56 = mul nsw i32 %55, 4
  %57 = getelementptr inbounds nuw %"class.icu_77::number::impl::DecimalQuantity", ptr %6, i32 0, i32 13
  %58 = load i64, ptr %57, align 8, !tbaa !42
  %59 = zext i32 %56 to i64
  %60 = lshr i64 %58, %59
  store i64 %60, ptr %57, align 8, !tbaa !42
  br label %61

61:                                               ; preds = %54, %53
  %62 = load i32, ptr %4, align 4, !tbaa !14
  %63 = getelementptr inbounds nuw %"class.icu_77::number::impl::DecimalQuantity", ptr %6, i32 0, i32 3
  %64 = load i32, ptr %63, align 4, !tbaa !43
  %65 = add nsw i32 %64, %62
  store i32 %65, ptr %63, align 4, !tbaa !43
  %66 = load i32, ptr %4, align 4, !tbaa !14
  %67 = getelementptr inbounds nuw %"class.icu_77::number::impl::DecimalQuantity", ptr %6, i32 0, i32 4
  %68 = load i32, ptr %67, align 8, !tbaa !44
  %69 = sub nsw i32 %68, %66
  store i32 %69, ptr %67, align 8, !tbaa !44
  ret void
}