; Function Attrs: mustprogress nofree norecurse nosync nounwind memory(readwrite, inaccessiblemem: none) uwtable
define void @_ZN6icu_776number4impl15DecimalQuantity10shiftRightEi(ptr noundef nonnull align 8 captures(none) dereferenceable(66) %0, i32 noundef %1) local_unnamed_addr #20 align 2 {
  %3 = getelementptr inbounds nuw i8, ptr %0, i64 64
  %4 = load i8, ptr %3, align 8, !tbaa !22, !range !24, !noundef !25
  %5 = trunc nuw i8 %4 to i1
  br i1 %5, label %.preheader12, label %32

.preheader12:                                     ; preds = %2
  %6 = getelementptr inbounds nuw i8, ptr %0, i64 16
  %7 = load i32, ptr %6, align 8, !tbaa !28
  %8 = icmp sgt i32 %7, %1
  br i1 %8, label %.lr.ph, label %.preheader

.lr.ph:                                           ; preds = %.preheader12
  %9 = getelementptr inbounds nuw i8, ptr %0, i64 48
  %10 = sext i32 %1 to i64
  br label %16

.preheader.loopexit:                              ; preds = %16
  %11 = trunc nuw nsw i64 %indvars.iv.next to i32
  br label %.preheader

.preheader:                                       ; preds = %.preheader.loopexit, %.preheader12
  %12 = phi i32 [ %7, %.preheader12 ], [ %22, %.preheader.loopexit ]
  %.0.lcssa = phi i32 [ 0, %.preheader12 ], [ %11, %.preheader.loopexit ]
  %13 = icmp slt i32 %.0.lcssa, %12
  br i1 %13, label %.lr.ph15, label %.loopexit

.lr.ph15:                                         ; preds = %.preheader
  %14 = getelementptr inbounds nuw i8, ptr %0, i64 48
  %15 = zext nneg i32 %.0.lcssa to i64
  br label %26

16:                                               ; preds = %.lr.ph, %16
  %indvars.iv = phi i64 [ 0, %.lr.ph ], [ %indvars.iv.next, %16 ]
  %17 = load ptr, ptr %9, align 8, !tbaa !26
  %18 = getelementptr i8, ptr %17, i64 %indvars.iv
  %19 = getelementptr i8, ptr %18, i64 %10
  %20 = load i8, ptr %19, align 1, !tbaa !26
  %21 = getelementptr inbounds nuw i8, ptr %17, i64 %indvars.iv
  store i8 %20, ptr %21, align 1, !tbaa !26
  %indvars.iv.next = add nuw nsw i64 %indvars.iv, 1
  %22 = load i32, ptr %6, align 8, !tbaa !28
  %23 = sub nsw i32 %22, %1
  %24 = sext i32 %23 to i64
  %25 = icmp slt i64 %indvars.iv.next, %24
  br i1 %25, label %16, label %.preheader.loopexit, !llvm.loop !39

26:                                               ; preds = %.lr.ph15, %26
  %indvars.iv17 = phi i64 [ %15, %.lr.ph15 ], [ %indvars.iv.next18, %26 ]
  %27 = load ptr, ptr %14, align 8, !tbaa !26
  %28 = getelementptr inbounds nuw i8, ptr %27, i64 %indvars.iv17
  store i8 0, ptr %28, align 1, !tbaa !26
  %indvars.iv.next18 = add nuw nsw i64 %indvars.iv17, 1
  %29 = load i32, ptr %6, align 8, !tbaa !28
  %30 = trunc nuw i64 %indvars.iv.next18 to i32
  %31 = icmp sgt i32 %29, %30
  br i1 %31, label %26, label %.loopexit, !llvm.loop !40

32:                                               ; preds = %2
  %33 = shl nsw i32 %1, 2
  %34 = getelementptr inbounds nuw i8, ptr %0, i64 48
  %35 = load i64, ptr %34, align 8, !tbaa !26
  %36 = zext nneg i32 %33 to i64
  %37 = lshr i64 %35, %36
  store i64 %37, ptr %34, align 8, !tbaa !26
  %.phi.trans.insert = getelementptr inbounds nuw i8, ptr %0, i64 16
  %.pre = load i32, ptr %.phi.trans.insert, align 8, !tbaa !28
  br label %.loopexit

.loopexit:                                        ; preds = %26, %.preheader, %32
  %38 = phi i32 [ %12, %.preheader ], [ %.pre, %32 ], [ %29, %26 ]
  %39 = getelementptr inbounds nuw i8, ptr %0, i64 12
  %40 = load i32, ptr %39, align 4, !tbaa !27
  %41 = add nsw i32 %40, %1
  store i32 %41, ptr %39, align 4, !tbaa !27
  %42 = getelementptr inbounds nuw i8, ptr %0, i64 16
  %43 = sub nsw i32 %38, %1
  store i32 %43, ptr %42, align 8, !tbaa !28
  ret void
}